; Function Attrs: nounwind uwtable
define range(i32 0, 2) i32 @tls1_check_ec_tmp_key(ptr noundef %0, i64 noundef %1) local_unnamed_addr #2 {
  %3 = getelementptr inbounds nuw i8, ptr %0, i64 2176
  %4 = load ptr, ptr %3, align 8, !tbaa !127
  %5 = getelementptr inbounds nuw i8, ptr %4, i64 28
  %6 = load i32, ptr %5, align 4, !tbaa !128
  %7 = and i32 %6, 196608
  %.not = icmp eq i32 %7, 0
  br i1 %.not, label %8, label %12

8:                                                ; preds = %2
  %9 = tail call zeroext i16 @tls1_shared_group(ptr noundef nonnull %0, i32 noundef 0)
  %10 = icmp ne i16 %9, 0
  %11 = zext i1 %10 to i32
  br label %17

12:                                               ; preds = %2
  switch i64 %1, label %17 [
    i64 50380843, label %13
    i64 50380844, label %15
  ]

13:                                               ; preds = %12
  %14 = tail call i32 @tls1_check_group_id(ptr noundef nonnull %0, i16 noundef zeroext 23, i32 noundef 1)
  br label %17

15:                                               ; preds = %12
  %16 = tail call i32 @tls1_check_group_id(ptr noundef nonnull %0, i16 noundef zeroext 24, i32 noundef 1)
  br label %17

17:                                               ; preds = %12, %15, %13, %8
  %.0 = phi i32 [ %14, %13 ], [ %16, %15 ], [ %11, %8 ], [ 0, %12 ]
  ret i32 %.0
}